target datalayout = "e-m:e-p270:32:32-p271:32:32-p272:64:64-i64:64-i128:128-f80:128-n8:16:32:64-S128"
target triple = "x86_64-pc-linux-gnu"

%union.pthread_mutex_t = type { %struct.__pthread_mutex_s }
%struct.__pthread_mutex_s = type { i32, i32, i32, i32, i32, i16, i16, %struct.__pthread_internal_list }
%struct.__pthread_internal_list = type { ptr, ptr }
%struct._priv_exr_part_t = type { i32, i32, %struct.exr_attribute_list, ptr, ptr, ptr, ptr, ptr, ptr, ptr, ptr, ptr, ptr, ptr, ptr, ptr, ptr, %struct.exr_attr_box2i_t, %struct.exr_attr_box2i_t, i32, i32, i32, float, i32, i32, ptr, ptr, ptr, ptr, i64, i16, i16, i32, i64, i64 }
%struct.exr_attribute_list = type { i32, i32, ptr, ptr }
%struct.exr_attr_box2i_t = type { %struct.exr_attr_v2i_t, %struct.exr_attr_v2i_t }
%struct.exr_attr_v2i_t = type { i32, i32 }
%struct._priv_exr_context_t = type { i8, i8, i8, i8, i8, i8, i8, i8, %struct.exr_attr_string_t, %struct.exr_attr_string_t, ptr, ptr, ptr, ptr, ptr, ptr, ptr, ptr, i32, i32, i32, i32, i32, float, ptr, ptr, ptr, i64, ptr, ptr, i64, i32, i32, i32, i32, %struct._priv_exr_part_t, ptr, ptr, %struct.exr_attribute_list, %union.pthread_mutex_t, i8, i8, [2 x i8], i32 }
%struct.exr_attr_string_t = type { i32, i32, ptr }

; Function Attrs: nounwind uwtable
define hidden i32 @internal_exr_add_part(ptr noundef %0, ptr noundef %1, ptr noundef %2) #0 {
  %4 = alloca i32, align 4
  %5 = alloca ptr, align 8
  %6 = alloca ptr, align 8
  %7 = alloca ptr, align 8
  %8 = alloca i32, align 4
  %9 = alloca ptr, align 8
  %10 = alloca ptr, align 8
  %11 = alloca %struct._priv_exr_part_t, align 8
  %12 = alloca i32, align 4
  %13 = alloca i32, align 4
  store ptr %0, ptr %5, align 8, !tbaa !3
  store ptr %1, ptr %6, align 8, !tbaa !8
  store ptr %2, ptr %7, align 8, !tbaa !11
  call void @llvm.lifetime.start.p0(i64 4, ptr %8) #7
  %14 = load ptr, ptr %5, align 8, !tbaa !3
  %15 = getelementptr inbounds nuw %struct._priv_exr_context_t, ptr %14, i32 0, i32 34
  %16 = load i32, ptr %15, align 4, !tbaa !13
  %17 = add nsw i32 %16, 1
  store i32 %17, ptr %8, align 4, !tbaa !26
  call void @llvm.lifetime.start.p0(i64 8, ptr %9) #7
  call void @llvm.lifetime.start.p0(i64 8, ptr %10) #7
  store ptr null, ptr %10, align 8, !tbaa !8
  %18 = load ptr, ptr %7, align 8, !tbaa !11
  %19 = icmp ne ptr %18, null
  br i1 %19, label %20, label %25

20:                                               ; preds = %3
  %21 = load ptr, ptr %5, align 8, !tbaa !3
  %22 = getelementptr inbounds nuw %struct._priv_exr_context_t, ptr %21, i32 0, i32 34
  %23 = load i32, ptr %22, align 4, !tbaa !13
  %24 = load ptr, ptr %7, align 8, !tbaa !11
  store i32 %23, ptr %24, align 4, !tbaa !26
  br label %25

25:                                               ; preds = %20, %3
  %26 = load i32, ptr %8, align 4, !tbaa !26
  %27 = icmp eq i32 %26, 1
  br i1 %27, label %28, label %36

28:                                               ; preds = %25
  %29 = load ptr, ptr %5, align 8, !tbaa !3
  %30 = getelementptr inbounds nuw %struct._priv_exr_context_t, ptr %29, i32 0, i32 35
  store ptr %30, ptr %9, align 8, !tbaa !27
  %31 = load ptr, ptr %9, align 8, !tbaa !27
  %32 = load ptr, ptr %5, align 8, !tbaa !3
  %33 = getelementptr inbounds nuw %struct._priv_exr_context_t, ptr %32, i32 0, i32 36
  store ptr %31, ptr %33, align 8, !tbaa !28
  %34 = load ptr, ptr %5, align 8, !tbaa !3
  %35 = getelementptr inbounds nuw %struct._priv_exr_context_t, ptr %34, i32 0, i32 36
  store ptr %35, ptr %10, align 8, !tbaa !8
  br label %74

36:                                               ; preds = %25
  call void @llvm.lifetime.start.p0(i64 264, ptr %11) #7
  call void @llvm.memset.p0.i64(ptr align 8 %11, i8 0, i64 264, i1 false)
  %37 = load ptr, ptr %5, align 8, !tbaa !3
  %38 = getelementptr inbounds nuw %struct._priv_exr_context_t, ptr %37, i32 0, i32 16
  %39 = load ptr, ptr %38, align 8, !tbaa !29
  %40 = call ptr %39(i64 noundef 264)
  store ptr %40, ptr %9, align 8, !tbaa !27
  %41 = load ptr, ptr %9, align 8, !tbaa !27
  %42 = icmp ne ptr %41, null
  br i1 %42, label %49, label %43

43:                                               ; preds = %36
  %44 = load ptr, ptr %5, align 8, !tbaa !3
  %45 = getelementptr inbounds nuw %struct._priv_exr_context_t, ptr %44, i32 0, i32 12
  %46 = load ptr, ptr %45, align 8, !tbaa !30
  %47 = load ptr, ptr %5, align 8, !tbaa !3
  %48 = call i32 %46(ptr noundef %47, i32 noundef 1)
  store i32 %48, ptr %4, align 4
  store i32 1, ptr %12, align 4
  br label %71

49:                                               ; preds = %36
  %50 = load ptr, ptr %5, align 8, !tbaa !3
  %51 = getelementptr inbounds nuw %struct._priv_exr_context_t, ptr %50, i32 0, i32 16
  %52 = load ptr, ptr %51, align 8, !tbaa !29
  %53 = load i32, ptr %8, align 4, !tbaa !26
  %54 = sext i32 %53 to i64
  %55 = mul i64 8, %54
  %56 = call ptr %52(i64 noundef %55)
  store ptr %56, ptr %10, align 8, !tbaa !8
  %57 = load ptr, ptr %10, align 8, !tbaa !8
  %58 = icmp ne ptr %57, null
  br i1 %58, label %69, label %59

59:                                               ; preds = %49
  %60 = load ptr, ptr %5, align 8, !tbaa !3
  %61 = getelementptr inbounds nuw %struct._priv_exr_context_t, ptr %60, i32 0, i32 17
  %62 = load ptr, ptr %61, align 8, !tbaa !31
  %63 = load ptr, ptr %9, align 8, !tbaa !27
  call void %62(ptr noundef %63)
  %64 = load ptr, ptr %5, align 8, !tbaa !3
  %65 = getelementptr inbounds nuw %struct._priv_exr_context_t, ptr %64, i32 0, i32 12
  %66 = load ptr, ptr %65, align 8, !tbaa !30
  %67 = load ptr, ptr %5, align 8, !tbaa !3
  %68 = call i32 %66(ptr noundef %67, i32 noundef 1)
  store i32 %68, ptr %4, align 4
  store i32 1, ptr %12, align 4
  br label %71

69:                                               ; preds = %49
  %70 = load ptr, ptr %9, align 8, !tbaa !27
  call void @llvm.memcpy.p0.p0.i64(ptr align 8 %70, ptr align 8 %11, i64 264, i1 false), !tbaa.struct !32
  store i32 0, ptr %12, align 4
  br label %71

71:                                               ; preds = %69, %59, %43
  call void @llvm.lifetime.end.p0(i64 264, ptr %11) #7
  %72 = load i32, ptr %12, align 4
  switch i32 %72, label %164 [
    i32 0, label %73
  ]

73:                                               ; preds = %71
  br label %74

74:                                               ; preds = %73, %28
  %75 = load ptr, ptr %9, align 8, !tbaa !27
  %76 = getelementptr inbounds nuw %struct._priv_exr_part_t, ptr %75, i32 0, i32 1
  store i32 4, ptr %76, align 4, !tbaa !39
  %77 = load ptr, ptr %9, align 8, !tbaa !27
  %78 = getelementptr inbounds nuw %struct._priv_exr_part_t, ptr %77, i32 0, i32 17
  %79 = getelementptr inbounds nuw %struct.exr_attr_box2i_t, ptr %78, i32 0, i32 1
  %80 = getelementptr inbounds nuw %struct.exr_attr_v2i_t, ptr %79, i32 0, i32 0
  store i32 -1, ptr %80, align 8, !tbaa !40
  %81 = load ptr, ptr %9, align 8, !tbaa !27
  %82 = getelementptr inbounds nuw %struct._priv_exr_part_t, ptr %81, i32 0, i32 17
  %83 = getelementptr inbounds nuw %struct.exr_attr_box2i_t, ptr %82, i32 0, i32 1
  %84 = getelementptr inbounds nuw %struct.exr_attr_v2i_t, ptr %83, i32 0, i32 1
  store i32 -1, ptr %84, align 4, !tbaa !41
  %85 = load ptr, ptr %9, align 8, !tbaa !27
  %86 = getelementptr inbounds nuw %struct._priv_exr_part_t, ptr %85, i32 0, i32 18
  %87 = getelementptr inbounds nuw %struct.exr_attr_box2i_t, ptr %86, i32 0, i32 1
  %88 = getelementptr inbounds nuw %struct.exr_attr_v2i_t, ptr %87, i32 0, i32 0
  store i32 -1, ptr %88, align 8, !tbaa !42
  %89 = load ptr, ptr %9, align 8, !tbaa !27
  %90 = getelementptr inbounds nuw %struct._priv_exr_part_t, ptr %89, i32 0, i32 18
  %91 = getelementptr inbounds nuw %struct.exr_attr_box2i_t, ptr %90, i32 0, i32 1
  %92 = getelementptr inbounds nuw %struct.exr_attr_v2i_t, ptr %91, i32 0, i32 1
  store i32 -1, ptr %92, align 4, !tbaa !43
  %93 = load ptr, ptr %9, align 8, !tbaa !27
  %94 = getelementptr inbounds nuw %struct._priv_exr_part_t, ptr %93, i32 0, i32 32
  store i32 -1, ptr %94, align 4, !tbaa !44
  %95 = load ptr, ptr %9, align 8, !tbaa !27
  %96 = getelementptr inbounds nuw %struct._priv_exr_part_t, ptr %95, i32 0, i32 30
  store i16 -1, ptr %96, align 8, !tbaa !45
  %97 = load ptr, ptr %5, align 8, !tbaa !3
  %98 = getelementptr inbounds nuw %struct._priv_exr_context_t, ptr %97, i32 0, i32 22
  %99 = load i32, ptr %98, align 8, !tbaa !46
  %100 = load ptr, ptr %9, align 8, !tbaa !27
  %101 = getelementptr inbounds nuw %struct._priv_exr_part_t, ptr %100, i32 0, i32 21
  store i32 %99, ptr %101, align 8, !tbaa !47
  %102 = load ptr, ptr %5, align 8, !tbaa !3
  %103 = getelementptr inbounds nuw %struct._priv_exr_context_t, ptr %102, i32 0, i32 23
  %104 = load float, ptr %103, align 4, !tbaa !48
  %105 = load ptr, ptr %9, align 8, !tbaa !27
  %106 = getelementptr inbounds nuw %struct._priv_exr_part_t, ptr %105, i32 0, i32 22
  store float %104, ptr %106, align 4, !tbaa !49
  %107 = load i32, ptr %8, align 4, !tbaa !26
  %108 = icmp sgt i32 %107, 1
  br i1 %108, label %109, label %139

109:                                              ; preds = %74
  call void @llvm.lifetime.start.p0(i64 4, ptr %13) #7
  store i32 0, ptr %13, align 4, !tbaa !26
  br label %110

110:                                              ; preds = %129, %109
  %111 = load i32, ptr %13, align 4, !tbaa !26
  %112 = load ptr, ptr %5, align 8, !tbaa !3
  %113 = getelementptr inbounds nuw %struct._priv_exr_context_t, ptr %112, i32 0, i32 34
  %114 = load i32, ptr %113, align 4, !tbaa !13
  %115 = icmp slt i32 %111, %114
  br i1 %115, label %117, label %116

116:                                              ; preds = %110
  store i32 2, ptr %12, align 4
  call void @llvm.lifetime.end.p0(i64 4, ptr %13) #7
  br label %132

117:                                              ; preds = %110
  %118 = load ptr, ptr %5, align 8, !tbaa !3
  %119 = getelementptr inbounds nuw %struct._priv_exr_context_t, ptr %118, i32 0, i32 37
  %120 = load ptr, ptr %119, align 8, !tbaa !50
  %121 = load i32, ptr %13, align 4, !tbaa !26
  %122 = sext i32 %121 to i64
  %123 = getelementptr inbounds ptr, ptr %120, i64 %122
  %124 = load ptr, ptr %123, align 8, !tbaa !27
  %125 = load ptr, ptr %10, align 8, !tbaa !8
  %126 = load i32, ptr %13, align 4, !tbaa !26
  %127 = sext i32 %126 to i64
  %128 = getelementptr inbounds ptr, ptr %125, i64 %127
  store ptr %124, ptr %128, align 8, !tbaa !27
  br label %129

129:                                              ; preds = %117
  %130 = load i32, ptr %13, align 4, !tbaa !26
  %131 = add nsw i32 %130, 1
  store i32 %131, ptr %13, align 4, !tbaa !26
  br label %110, !llvm.loop !51

132:                                              ; preds = %116
  %133 = load ptr, ptr %9, align 8, !tbaa !27
  %134 = load ptr, ptr %10, align 8, !tbaa !8
  %135 = load i32, ptr %8, align 4, !tbaa !26
  %136 = sub nsw i32 %135, 1
  %137 = sext i32 %136 to i64
  %138 = getelementptr inbounds ptr, ptr %134, i64 %137
  store ptr %133, ptr %138, align 8, !tbaa !27
  br label %139

139:                                              ; preds = %132, %74
  %140 = load ptr, ptr %5, align 8, !tbaa !3
  %141 = getelementptr inbounds nuw %struct._priv_exr_context_t, ptr %140, i32 0, i32 34
  %142 = load i32, ptr %141, align 4, !tbaa !13
  %143 = icmp sgt i32 %142, 1
  br i1 %143, label %144, label %151

144:                                              ; preds = %139
  %145 = load ptr, ptr %5, align 8, !tbaa !3
  %146 = getelementptr inbounds nuw %struct._priv_exr_context_t, ptr %145, i32 0, i32 17
  %147 = load ptr, ptr %146, align 8, !tbaa !31
  %148 = load ptr, ptr %5, align 8, !tbaa !3
  %149 = getelementptr inbounds nuw %struct._priv_exr_context_t, ptr %148, i32 0, i32 37
  %150 = load ptr, ptr %149, align 8, !tbaa !50
  call void %147(ptr noundef %150)
  br label %151

151:                                              ; preds = %144, %139
  %152 = load ptr, ptr %10, align 8, !tbaa !8
  %153 = load ptr, ptr %5, align 8, !tbaa !3
  %154 = getelementptr inbounds nuw %struct._priv_exr_context_t, ptr %153, i32 0, i32 37
  store ptr %152, ptr %154, align 8, !tbaa !50
  %155 = load i32, ptr %8, align 4, !tbaa !26
  %156 = load ptr, ptr %5, align 8, !tbaa !3
  %157 = getelementptr inbounds nuw %struct._priv_exr_context_t, ptr %156, i32 0, i32 34
  store i32 %155, ptr %157, align 4, !tbaa !13
  %158 = load ptr, ptr %6, align 8, !tbaa !8
  %159 = icmp ne ptr %158, null
  br i1 %159, label %160, label %163

160:                                              ; preds = %151
  %161 = load ptr, ptr %9, align 8, !tbaa !27
  %162 = load ptr, ptr %6, align 8, !tbaa !8
  store ptr %161, ptr %162, align 8, !tbaa !27
  br label %163

163:                                              ; preds = %160, %151
  store i32 0, ptr %4, align 4
  store i32 1, ptr %12, align 4
  br label %164

164:                                              ; preds = %163, %71
  call void @llvm.lifetime.end.p0(i64 8, ptr %10) #7
  call void @llvm.lifetime.end.p0(i64 8, ptr %9) #7
  call void @llvm.lifetime.end.p0(i64 4, ptr %8) #7
  %165 = load i32, ptr %4, align 4
  ret i32 %165
}