; Function Attrs: nounwind uwtable
define hidden i32 @internal_exr_add_part(ptr noundef %0, ptr noundef writeonly %1, ptr noundef writeonly %2) local_unnamed_addr #0 {
  %4 = getelementptr inbounds nuw i8, ptr %0, i64 196
  %5 = load i32, ptr %4, align 4, !tbaa !3
  %6 = add nsw i32 %5, 1
  %.not = icmp eq ptr %2, null
  br i1 %.not, label %8, label %7

7:                                                ; preds = %3
  store i32 %5, ptr %2, align 4, !tbaa !22
  br label %8

8:                                                ; preds = %7, %3
  %9 = icmp eq i32 %5, 0
  br i1 %9, label %10, label %13

10:                                               ; preds = %8
  %11 = getelementptr inbounds nuw i8, ptr %0, i64 200
  %12 = getelementptr inbounds nuw i8, ptr %0, i64 464
  store ptr %11, ptr %12, align 8, !tbaa !23
  br label %29

13:                                               ; preds = %8
  %14 = getelementptr inbounds nuw i8, ptr %0, i64 88
  %15 = load ptr, ptr %14, align 8, !tbaa !24
  %16 = tail call ptr %15(i64 noundef 264) #12
  %.not65 = icmp eq ptr %16, null
  br i1 %.not65, label %.thread, label %17

17:                                               ; preds = %13
  %18 = load ptr, ptr %14, align 8, !tbaa !24
  %19 = sext i32 %6 to i64
  %20 = shl nsw i64 %19, 3
  %21 = tail call ptr %18(i64 noundef %20) #12
  %.not66 = icmp eq ptr %21, null
  br i1 %.not66, label %22, label %28

22:                                               ; preds = %17
  %23 = getelementptr inbounds nuw i8, ptr %0, i64 96
  %24 = load ptr, ptr %23, align 8, !tbaa !25
  tail call void %24(ptr noundef nonnull %16) #12
  br label %.thread

.thread:                                          ; preds = %13, %22
  %25 = getelementptr inbounds nuw i8, ptr %0, i64 56
  %26 = load ptr, ptr %25, align 8, !tbaa !26
  %27 = tail call i32 %26(ptr noundef nonnull %0, i32 noundef 1) #12
  br label %63

28:                                               ; preds = %17
  tail call void @llvm.memset.p0.i64(ptr noundef nonnull align 8 dereferenceable(264) %16, i8 0, i64 264, i1 false)
  br label %29

29:                                               ; preds = %28, %10
  %.056 = phi ptr [ %11, %10 ], [ %16, %28 ]
  %.055 = phi ptr [ %12, %10 ], [ %21, %28 ]
  %30 = getelementptr inbounds nuw i8, ptr %.056, i64 4
  store i32 4, ptr %30, align 4, !tbaa !27
  %31 = getelementptr inbounds nuw i8, ptr %.056, i64 152
  store i32 -1, ptr %31, align 8, !tbaa !28
  %32 = getelementptr inbounds nuw i8, ptr %.056, i64 156
  store i32 -1, ptr %32, align 4, !tbaa !29
  %33 = getelementptr inbounds nuw i8, ptr %.056, i64 168
  store i32 -1, ptr %33, align 8, !tbaa !30
  %34 = getelementptr inbounds nuw i8, ptr %.056, i64 172
  store i32 -1, ptr %34, align 4, !tbaa !31
  %35 = getelementptr inbounds nuw i8, ptr %.056, i64 244
  store i32 -1, ptr %35, align 4, !tbaa !32
  %36 = getelementptr inbounds nuw i8, ptr %.056, i64 240
  store i16 -1, ptr %36, align 8, !tbaa !33
  %37 = getelementptr inbounds nuw i8, ptr %0, i64 120
  %38 = load i32, ptr %37, align 8, !tbaa !34
  %39 = getelementptr inbounds nuw i8, ptr %.056, i64 184
  store i32 %38, ptr %39, align 8, !tbaa !35
  %40 = getelementptr inbounds nuw i8, ptr %0, i64 124
  %41 = load float, ptr %40, align 4, !tbaa !36
  %42 = getelementptr inbounds nuw i8, ptr %.056, i64 188
  store float %41, ptr %42, align 4, !tbaa !37
  %43 = icmp sgt i32 %5, 0
  %.pre = load i32, ptr %4, align 4, !tbaa !3
  br i1 %43, label %.preheader, label %53

.preheader:                                       ; preds = %29
  %44 = icmp sgt i32 %.pre, 0
  br i1 %44, label %.lr.ph, label %._crit_edge

.lr.ph:                                           ; preds = %.preheader
  %45 = getelementptr inbounds nuw i8, ptr %0, i64 472
  %46 = load ptr, ptr %45, align 8, !tbaa !38
  %wide.trip.count = zext nneg i32 %.pre to i64
  br label %49

._crit_edge:                                      ; preds = %49, %.preheader
  %47 = zext nneg i32 %5 to i64
  %48 = getelementptr inbounds nuw ptr, ptr %.055, i64 %47
  store ptr %.056, ptr %48, align 8, !tbaa !39
  br label %53

49:                                               ; preds = %.lr.ph, %49
  %indvars.iv = phi i64 [ 0, %.lr.ph ], [ %indvars.iv.next, %49 ]
  %50 = getelementptr inbounds nuw ptr, ptr %46, i64 %indvars.iv
  %51 = load ptr, ptr %50, align 8, !tbaa !39
  %52 = getelementptr inbounds nuw ptr, ptr %.055, i64 %indvars.iv
  store ptr %51, ptr %52, align 8, !tbaa !39
  %indvars.iv.next = add nuw nsw i64 %indvars.iv, 1
  %exitcond.not = icmp eq i64 %indvars.iv.next, %wide.trip.count
  br i1 %exitcond.not, label %._crit_edge, label %49, !llvm.loop !40

53:                                               ; preds = %._crit_edge, %29
  %54 = icmp sgt i32 %.pre, 1
  br i1 %54, label %55, label %60

55:                                               ; preds = %53
  %56 = getelementptr inbounds nuw i8, ptr %0, i64 96
  %57 = load ptr, ptr %56, align 8, !tbaa !25
  %58 = getelementptr inbounds nuw i8, ptr %0, i64 472
  %59 = load ptr, ptr %58, align 8, !tbaa !38
  tail call void %57(ptr noundef %59) #12
  br label %60

60:                                               ; preds = %55, %53
  %61 = getelementptr inbounds nuw i8, ptr %0, i64 472
  store ptr %.055, ptr %61, align 8, !tbaa !38
  store i32 %6, ptr %4, align 4, !tbaa !3
  %.not67 = icmp eq ptr %1, null
  br i1 %.not67, label %63, label %62

62:                                               ; preds = %60
  store ptr %.056, ptr %1, align 8, !tbaa !39
  br label %63

63:                                               ; preds = %.thread, %60, %62
  %.158 = phi i32 [ 0, %62 ], [ 0, %60 ], [ %27, %.thread ]
  ret i32 %.158
}